; ModuleID = '29/854.c'
source_filename = "29/854.c"
target datalayout = "e-m:e-p270:32:32-p271:32:32-p272:64:64-i64:64-f80:128-n8:16:32:64-S128"
target triple = "x86_64-pc-linux-gnu"

@.str = private unnamed_addr constant [3 x i8] c"%d\00", align 1
@.str.1 = private unnamed_addr constant [6 x i8] c"%.3f\0A\00", align 1

; Function Attrs: noinline nounwind uwtable
define dso_local i32 @main() #0 {
  %1 = alloca i32, align 4
  %2 = alloca i32, align 4
  %3 = alloca i32, align 4
  %4 = alloca i32, align 4
  %5 = alloca i32, align 4
  %6 = alloca float, align 4
  %7 = alloca i32*, align 8
  %8 = alloca i32*, align 8
  %9 = alloca float*, align 8
  store i32 0, i32* %1, align 4
  %10 = call i32 (i8*, ...) @__isoc99_scanf(i8* getelementptr inbounds ([3 x i8], [3 x i8]* @.str, i64 0, i64 0), i32* %2)
  store i32 0, i32* %4, align 4
  br label %11

11:                                               ; preds = %171, %0
  %12 = load i32, i32* %4, align 4
  %13 = load i32, i32* %2, align 4
  %14 = icmp slt i32 %12, %13
  br i1 %14, label %15, label %174

15:                                               ; preds = %11
  store float 0.000000e+00, float* %6, align 4
  %16 = call i32 (i8*, ...) @__isoc99_scanf(i8* getelementptr inbounds ([3 x i8], [3 x i8]* @.str, i64 0, i64 0), i32* %3)
  %17 = load i32, i32* %3, align 4
  %18 = sext i32 %17 to i64
  %19 = mul i64 4, %18
  %20 = call noalias i8* @malloc(i64 %19) #3
  %21 = bitcast i8* %20 to i32*
  store i32* %21, i32** %7, align 8
  %22 = load i32, i32* %3, align 4
  %23 = sext i32 %22 to i64
  %24 = mul i64 4, %23
  %25 = call noalias i8* @malloc(i64 %24) #3
  %26 = bitcast i8* %25 to i32*
  store i32* %26, i32** %8, align 8
  %27 = load i32, i32* %3, align 4
  %28 = sext i32 %27 to i64
  %29 = mul i64 4, %28
  %30 = call noalias i8* @malloc(i64 %29) #3
  %31 = bitcast i8* %30 to float*
  store float* %31, float** %9, align 8
  %32 = load i32*, i32** %7, align 8
  %33 = getelementptr inbounds i32, i32* %32, i64 0
  store i32 2, i32* %33, align 4
  %34 = load i32*, i32** %7, align 8
  %35 = getelementptr inbounds i32, i32* %34, i64 1
  store i32 3, i32* %35, align 4
  %36 = load i32*, i32** %8, align 8
  %37 = getelementptr inbounds i32, i32* %36, i64 0
  store i32 1, i32* %37, align 4
  %38 = load i32*, i32** %8, align 8
  %39 = getelementptr inbounds i32, i32* %38, i64 1
  store i32 2, i32* %39, align 4
  %40 = load i32*, i32** %7, align 8
  %41 = getelementptr inbounds i32, i32* %40, i64 0
  %42 = load i32, i32* %41, align 4
  %43 = sitofp i32 %42 to float
  %44 = load i32*, i32** %8, align 8
  %45 = getelementptr inbounds i32, i32* %44, i64 0
  %46 = load i32, i32* %45, align 4
  %47 = sitofp i32 %46 to float
  %48 = fdiv float %43, %47
  %49 = load float*, float** %9, align 8
  %50 = getelementptr inbounds float, float* %49, i64 0
  store float %48, float* %50, align 4
  %51 = load i32*, i32** %7, align 8
  %52 = getelementptr inbounds i32, i32* %51, i64 1
  %53 = load i32, i32* %52, align 4
  %54 = sitofp i32 %53 to float
  %55 = load i32*, i32** %8, align 8
  %56 = getelementptr inbounds i32, i32* %55, i64 1
  %57 = load i32, i32* %56, align 4
  %58 = sitofp i32 %57 to float
  %59 = fdiv float %54, %58
  %60 = load float*, float** %9, align 8
  %61 = getelementptr inbounds float, float* %60, i64 1
  store float %59, float* %61, align 4
  %62 = load i32, i32* %3, align 4
  %63 = icmp eq i32 %62, 1
  br i1 %63, label %64, label %70

64:                                               ; preds = %15
  %65 = load float*, float** %9, align 8
  %66 = getelementptr inbounds float, float* %65, i64 0
  %67 = load float, float* %66, align 4
  %68 = fpext float %67 to double
  %69 = call i32 (i8*, ...) @printf(i8* getelementptr inbounds ([6 x i8], [6 x i8]* @.str.1, i64 0, i64 0), double %68)
  br label %70

70:                                               ; preds = %64, %15
  %71 = load i32, i32* %3, align 4
  %72 = icmp eq i32 %71, 2
  br i1 %72, label %73, label %83

73:                                               ; preds = %70
  %74 = load float*, float** %9, align 8
  %75 = getelementptr inbounds float, float* %74, i64 0
  %76 = load float, float* %75, align 4
  %77 = load float*, float** %9, align 8
  %78 = getelementptr inbounds float, float* %77, i64 1
  %79 = load float, float* %78, align 4
  %80 = fadd float %76, %79
  %81 = fpext float %80 to double
  %82 = call i32 (i8*, ...) @printf(i8* getelementptr inbounds ([6 x i8], [6 x i8]* @.str.1, i64 0, i64 0), double %81)
  br label %83

83:                                               ; preds = %73, %70
  %84 = load i32, i32* %3, align 4
  %85 = icmp sge i32 %84, 3
  br i1 %85, label %86, label %170

86:                                               ; preds = %83
  %87 = load float*, float** %9, align 8
  %88 = getelementptr inbounds float, float* %87, i64 0
  %89 = load float, float* %88, align 4
  %90 = load float*, float** %9, align 8
  %91 = getelementptr inbounds float, float* %90, i64 1
  %92 = load float, float* %91, align 4
  %93 = fadd float %89, %92
  store float %93, float* %6, align 4
  store i32 3, i32* %5, align 4
  br label %94

94:                                               ; preds = %163, %86
  %95 = load i32, i32* %5, align 4
  %96 = load i32, i32* %3, align 4
  %97 = icmp sle i32 %95, %96
  br i1 %97, label %98, label %166

98:                                               ; preds = %94
  %99 = load i32*, i32** %7, align 8
  %100 = load i32, i32* %5, align 4
  %101 = sub nsw i32 %100, 2
  %102 = sext i32 %101 to i64
  %103 = getelementptr inbounds i32, i32* %99, i64 %102
  %104 = load i32, i32* %103, align 4
  %105 = load i32*, i32** %7, align 8
  %106 = load i32, i32* %5, align 4
  %107 = sub nsw i32 %106, 3
  %108 = sext i32 %107 to i64
  %109 = getelementptr inbounds i32, i32* %105, i64 %108
  %110 = load i32, i32* %109, align 4
  %111 = add nsw i32 %104, %110
  %112 = load i32*, i32** %7, align 8
  %113 = load i32, i32* %5, align 4
  %114 = sub nsw i32 %113, 1
  %115 = sext i32 %114 to i64
  %116 = getelementptr inbounds i32, i32* %112, i64 %115
  store i32 %111, i32* %116, align 4
  %117 = load i32*, i32** %8, align 8
  %118 = load i32, i32* %5, align 4
  %119 = sub nsw i32 %118, 2
  %120 = sext i32 %119 to i64
  %121 = getelementptr inbounds i32, i32* %117, i64 %120
  %122 = load i32, i32* %121, align 4
  %123 = load i32*, i32** %8, align 8
  %124 = load i32, i32* %5, align 4
  %125 = sub nsw i32 %124, 3
  %126 = sext i32 %125 to i64
  %127 = getelementptr inbounds i32, i32* %123, i64 %126
  %128 = load i32, i32* %127, align 4
  %129 = add nsw i32 %122, %128
  %130 = load i32*, i32** %8, align 8
  %131 = load i32, i32* %5, align 4
  %132 = sub nsw i32 %131, 1
  %133 = sext i32 %132 to i64
  %134 = getelementptr inbounds i32, i32* %130, i64 %133
  store i32 %129, i32* %134, align 4
  %135 = load i32*, i32** %7, align 8
  %136 = load i32, i32* %5, align 4
  %137 = sub nsw i32 %136, 1
  %138 = sext i32 %137 to i64
  %139 = getelementptr inbounds i32, i32* %135, i64 %138
  %140 = load i32, i32* %139, align 4
  %141 = sitofp i32 %140 to float
  %142 = load i32*, i32** %8, align 8
  %143 = load i32, i32* %5, align 4
  %144 = sub nsw i32 %143, 1
  %145 = sext i32 %144 to i64
  %146 = getelementptr inbounds i32, i32* %142, i64 %145
  %147 = load i32, i32* %146, align 4
  %148 = sitofp i32 %147 to float
  %149 = fdiv float %141, %148
  %150 = load float*, float** %9, align 8
  %151 = load i32, i32* %5, align 4
  %152 = sub nsw i32 %151, 1
  %153 = sext i32 %152 to i64
  %154 = getelementptr inbounds float, float* %150, i64 %153
  store float %149, float* %154, align 4
  %155 = load float*, float** %9, align 8
  %156 = load i32, i32* %5, align 4
  %157 = sub nsw i32 %156, 1
  %158 = sext i32 %157 to i64
  %159 = getelementptr inbounds float, float* %155, i64 %158
  %160 = load float, float* %159, align 4
  %161 = load float, float* %6, align 4
  %162 = fadd float %161, %160
  store float %162, float* %6, align 4
  br label %163

163:                                              ; preds = %98
  %164 = load i32, i32* %5, align 4
  %165 = add nsw i32 %164, 1
  store i32 %165, i32* %5, align 4
  br label %94

166:                                              ; preds = %94
  %167 = load float, float* %6, align 4
  %168 = fpext float %167 to double
  %169 = call i32 (i8*, ...) @printf(i8* getelementptr inbounds ([6 x i8], [6 x i8]* @.str.1, i64 0, i64 0), double %168)
  br label %170

170:                                              ; preds = %166, %83
  br label %171

171:                                              ; preds = %170
  %172 = load i32, i32* %4, align 4
  %173 = add nsw i32 %172, 1
  store i32 %173, i32* %4, align 4
  br label %11

174:                                              ; preds = %11
  ret i32 0
}

declare dso_local i32 @__isoc99_scanf(i8*, ...) #1

; Function Attrs: nounwind
declare dso_local noalias i8* @malloc(i64) #2

declare dso_local i32 @printf(i8*, ...) #1


!llvm.module.flags = !{!0}
!llvm.ident = !{!1}

!0 = !{i32 1, !"wchar_size", i32 4}
!1 = !{!"clang version 10.0.0-4ubuntu1 "}
